; ModuleID = '39/1138.c'
source_filename = "39/1138.c"
target datalayout = "e-m:e-p270:32:32-p271:32:32-p272:64:64-i64:64-f80:128-n8:16:32:64-S128"
target triple = "x86_64-pc-linux-gnu"

%struct.stu = type { [20 x i8], i32, i32, i8, i8, i32 }

@.str = private unnamed_addr constant [3 x i8] c"%d\00", align 1
@.str.1 = private unnamed_addr constant [18 x i8] c"%s %d %d %c %c %d\00", align 1
@.str.2 = private unnamed_addr constant [4 x i8] c"%s\0A\00", align 1
@.str.3 = private unnamed_addr constant [4 x i8] c"%d\0A\00", align 1

; Function Attrs: noinline nounwind uwtable
define dso_local i32 @main(i32 %0, i8** %1) #0 {
  %3 = alloca i32, align 4
  %4 = alloca i32, align 4
  %5 = alloca i8**, align 8
  %6 = alloca [101 x %struct.stu], align 16
  %7 = alloca i32, align 4
  %8 = alloca [101 x i32], align 16
  %9 = alloca i32, align 4
  %10 = alloca i32, align 4
  %11 = alloca i32, align 4
  %12 = alloca i32, align 4
  %13 = alloca i32, align 4
  %14 = alloca i32, align 4
  %15 = alloca i32, align 4
  store i32 0, i32* %3, align 4
  store i32 %0, i32* %4, align 4
  store i8** %1, i8*** %5, align 8
  %16 = call i32 (i8*, ...) @__isoc99_scanf(i8* getelementptr inbounds ([3 x i8], [3 x i8]* @.str, i64 0, i64 0), i32* %7)
  store i32 1, i32* %9, align 4
  br label %17

17:                                               ; preds = %25, %2
  %18 = load i32, i32* %9, align 4
  %19 = load i32, i32* %7, align 4
  %20 = icmp sle i32 %18, %19
  br i1 %20, label %21, label %28

21:                                               ; preds = %17
  %22 = load i32, i32* %9, align 4
  %23 = sext i32 %22 to i64
  %24 = getelementptr inbounds [101 x i32], [101 x i32]* %8, i64 0, i64 %23
  store i32 0, i32* %24, align 4
  br label %25

25:                                               ; preds = %21
  %26 = load i32, i32* %9, align 4
  %27 = add nsw i32 %26, 1
  store i32 %27, i32* %9, align 4
  br label %17

28:                                               ; preds = %17
  store i32 0, i32* %10, align 4
  store i32 1, i32* %11, align 4
  br label %29

29:                                               ; preds = %59, %28
  %30 = load i32, i32* %11, align 4
  %31 = load i32, i32* %7, align 4
  %32 = icmp sle i32 %30, %31
  br i1 %32, label %33, label %62

33:                                               ; preds = %29
  %34 = load i32, i32* %11, align 4
  %35 = sext i32 %34 to i64
  %36 = getelementptr inbounds [101 x %struct.stu], [101 x %struct.stu]* %6, i64 0, i64 %35
  %37 = getelementptr inbounds %struct.stu, %struct.stu* %36, i32 0, i32 0
  %38 = load i32, i32* %11, align 4
  %39 = sext i32 %38 to i64
  %40 = getelementptr inbounds [101 x %struct.stu], [101 x %struct.stu]* %6, i64 0, i64 %39
  %41 = getelementptr inbounds %struct.stu, %struct.stu* %40, i32 0, i32 1
  %42 = load i32, i32* %11, align 4
  %43 = sext i32 %42 to i64
  %44 = getelementptr inbounds [101 x %struct.stu], [101 x %struct.stu]* %6, i64 0, i64 %43
  %45 = getelementptr inbounds %struct.stu, %struct.stu* %44, i32 0, i32 2
  %46 = load i32, i32* %11, align 4
  %47 = sext i32 %46 to i64
  %48 = getelementptr inbounds [101 x %struct.stu], [101 x %struct.stu]* %6, i64 0, i64 %47
  %49 = getelementptr inbounds %struct.stu, %struct.stu* %48, i32 0, i32 3
  %50 = load i32, i32* %11, align 4
  %51 = sext i32 %50 to i64
  %52 = getelementptr inbounds [101 x %struct.stu], [101 x %struct.stu]* %6, i64 0, i64 %51
  %53 = getelementptr inbounds %struct.stu, %struct.stu* %52, i32 0, i32 4
  %54 = load i32, i32* %11, align 4
  %55 = sext i32 %54 to i64
  %56 = getelementptr inbounds [101 x %struct.stu], [101 x %struct.stu]* %6, i64 0, i64 %55
  %57 = getelementptr inbounds %struct.stu, %struct.stu* %56, i32 0, i32 5
  %58 = call i32 (i8*, ...) @__isoc99_scanf(i8* getelementptr inbounds ([18 x i8], [18 x i8]* @.str.1, i64 0, i64 0), [20 x i8]* %37, i32* %41, i32* %45, i8* %49, i8* %53, i32* %57)
  br label %59

59:                                               ; preds = %33
  %60 = load i32, i32* %11, align 4
  %61 = add nsw i32 %60, 1
  store i32 %61, i32* %11, align 4
  br label %29

62:                                               ; preds = %29
  store i32 1, i32* %12, align 4
  br label %63

63:                                               ; preds = %169, %62
  %64 = load i32, i32* %12, align 4
  %65 = load i32, i32* %7, align 4
  %66 = icmp sle i32 %64, %65
  br i1 %66, label %67, label %172

67:                                               ; preds = %63
  %68 = load i32, i32* %12, align 4
  %69 = sext i32 %68 to i64
  %70 = getelementptr inbounds [101 x %struct.stu], [101 x %struct.stu]* %6, i64 0, i64 %69
  %71 = getelementptr inbounds %struct.stu, %struct.stu* %70, i32 0, i32 1
  %72 = load i32, i32* %71, align 4
  %73 = icmp sgt i32 %72, 80
  br i1 %73, label %74, label %87

74:                                               ; preds = %67
  %75 = load i32, i32* %12, align 4
  %76 = sext i32 %75 to i64
  %77 = getelementptr inbounds [101 x %struct.stu], [101 x %struct.stu]* %6, i64 0, i64 %76
  %78 = getelementptr inbounds %struct.stu, %struct.stu* %77, i32 0, i32 5
  %79 = load i32, i32* %78, align 4
  %80 = icmp sge i32 %79, 1
  br i1 %80, label %81, label %87

81:                                               ; preds = %74
  %82 = load i32, i32* %12, align 4
  %83 = sext i32 %82 to i64
  %84 = getelementptr inbounds [101 x i32], [101 x i32]* %8, i64 0, i64 %83
  %85 = load i32, i32* %84, align 4
  %86 = add nsw i32 %85, 8000
  store i32 %86, i32* %84, align 4
  br label %87

87:                                               ; preds = %81, %74, %67
  %88 = load i32, i32* %12, align 4
  %89 = sext i32 %88 to i64
  %90 = getelementptr inbounds [101 x %struct.stu], [101 x %struct.stu]* %6, i64 0, i64 %89
  %91 = getelementptr inbounds %struct.stu, %struct.stu* %90, i32 0, i32 1
  %92 = load i32, i32* %91, align 4
  %93 = icmp sgt i32 %92, 85
  br i1 %93, label %94, label %107

94:                                               ; preds = %87
  %95 = load i32, i32* %12, align 4
  %96 = sext i32 %95 to i64
  %97 = getelementptr inbounds [101 x %struct.stu], [101 x %struct.stu]* %6, i64 0, i64 %96
  %98 = getelementptr inbounds %struct.stu, %struct.stu* %97, i32 0, i32 2
  %99 = load i32, i32* %98, align 4
  %100 = icmp sgt i32 %99, 80
  br i1 %100, label %101, label %107

101:                                              ; preds = %94
  %102 = load i32, i32* %12, align 4
  %103 = sext i32 %102 to i64
  %104 = getelementptr inbounds [101 x i32], [101 x i32]* %8, i64 0, i64 %103
  %105 = load i32, i32* %104, align 4
  %106 = add nsw i32 %105, 4000
  store i32 %106, i32* %104, align 4
  br label %107

107:                                              ; preds = %101, %94, %87
  %108 = load i32, i32* %12, align 4
  %109 = sext i32 %108 to i64
  %110 = getelementptr inbounds [101 x %struct.stu], [101 x %struct.stu]* %6, i64 0, i64 %109
  %111 = getelementptr inbounds %struct.stu, %struct.stu* %110, i32 0, i32 1
  %112 = load i32, i32* %111, align 4
  %113 = icmp sgt i32 %112, 90
  br i1 %113, label %114, label %120

114:                                              ; preds = %107
  %115 = load i32, i32* %12, align 4
  %116 = sext i32 %115 to i64
  %117 = getelementptr inbounds [101 x i32], [101 x i32]* %8, i64 0, i64 %116
  %118 = load i32, i32* %117, align 4
  %119 = add nsw i32 %118, 2000
  store i32 %119, i32* %117, align 4
  br label %120

120:                                              ; preds = %114, %107
  %121 = load i32, i32* %12, align 4
  %122 = sext i32 %121 to i64
  %123 = getelementptr inbounds [101 x %struct.stu], [101 x %struct.stu]* %6, i64 0, i64 %122
  %124 = getelementptr inbounds %struct.stu, %struct.stu* %123, i32 0, i32 1
  %125 = load i32, i32* %124, align 4
  %126 = icmp sgt i32 %125, 85
  br i1 %126, label %127, label %141

127:                                              ; preds = %120
  %128 = load i32, i32* %12, align 4
  %129 = sext i32 %128 to i64
  %130 = getelementptr inbounds [101 x %struct.stu], [101 x %struct.stu]* %6, i64 0, i64 %129
  %131 = getelementptr inbounds %struct.stu, %struct.stu* %130, i32 0, i32 4
  %132 = load i8, i8* %131, align 1
  %133 = sext i8 %132 to i32
  %134 = icmp eq i32 %133, 89
  br i1 %134, label %135, label %141

135:                                              ; preds = %127
  %136 = load i32, i32* %12, align 4
  %137 = sext i32 %136 to i64
  %138 = getelementptr inbounds [101 x i32], [101 x i32]* %8, i64 0, i64 %137
  %139 = load i32, i32* %138, align 4
  %140 = add nsw i32 %139, 1000
  store i32 %140, i32* %138, align 4
  br label %141

141:                                              ; preds = %135, %127, %120
  %142 = load i32, i32* %12, align 4
  %143 = sext i32 %142 to i64
  %144 = getelementptr inbounds [101 x %struct.stu], [101 x %struct.stu]* %6, i64 0, i64 %143
  %145 = getelementptr inbounds %struct.stu, %struct.stu* %144, i32 0, i32 2
  %146 = load i32, i32* %145, align 4
  %147 = icmp sgt i32 %146, 80
  br i1 %147, label %148, label %162

148:                                              ; preds = %141
  %149 = load i32, i32* %12, align 4
  %150 = sext i32 %149 to i64
  %151 = getelementptr inbounds [101 x %struct.stu], [101 x %struct.stu]* %6, i64 0, i64 %150
  %152 = getelementptr inbounds %struct.stu, %struct.stu* %151, i32 0, i32 3
  %153 = load i8, i8* %152, align 4
  %154 = sext i8 %153 to i32
  %155 = icmp eq i32 %154, 89
  br i1 %155, label %156, label %162

156:                                              ; preds = %148
  %157 = load i32, i32* %12, align 4
  %158 = sext i32 %157 to i64
  %159 = getelementptr inbounds [101 x i32], [101 x i32]* %8, i64 0, i64 %158
  %160 = load i32, i32* %159, align 4
  %161 = add nsw i32 %160, 850
  store i32 %161, i32* %159, align 4
  br label %162

162:                                              ; preds = %156, %148, %141
  %163 = load i32, i32* %12, align 4
  %164 = sext i32 %163 to i64
  %165 = getelementptr inbounds [101 x i32], [101 x i32]* %8, i64 0, i64 %164
  %166 = load i32, i32* %165, align 4
  %167 = load i32, i32* %10, align 4
  %168 = add nsw i32 %167, %166
  store i32 %168, i32* %10, align 4
  br label %169

169:                                              ; preds = %162
  %170 = load i32, i32* %12, align 4
  %171 = add nsw i32 %170, 1
  store i32 %171, i32* %12, align 4
  br label %63

172:                                              ; preds = %63
  %173 = getelementptr inbounds [101 x i32], [101 x i32]* %8, i64 0, i64 1
  %174 = load i32, i32* %173, align 4
  store i32 %174, i32* %13, align 4
  store i32 1, i32* %14, align 4
  store i32 2, i32* %15, align 4
  br label %175

175:                                              ; preds = %193, %172
  %176 = load i32, i32* %15, align 4
  %177 = load i32, i32* %7, align 4
  %178 = icmp sle i32 %176, %177
  br i1 %178, label %179, label %196

179:                                              ; preds = %175
  %180 = load i32, i32* %15, align 4
  %181 = sext i32 %180 to i64
  %182 = getelementptr inbounds [101 x i32], [101 x i32]* %8, i64 0, i64 %181
  %183 = load i32, i32* %182, align 4
  %184 = load i32, i32* %13, align 4
  %185 = icmp sgt i32 %183, %184
  br i1 %185, label %186, label %192

186:                                              ; preds = %179
  %187 = load i32, i32* %15, align 4
  %188 = sext i32 %187 to i64
  %189 = getelementptr inbounds [101 x i32], [101 x i32]* %8, i64 0, i64 %188
  %190 = load i32, i32* %189, align 4
  store i32 %190, i32* %13, align 4
  %191 = load i32, i32* %15, align 4
  store i32 %191, i32* %14, align 4
  br label %192

192:                                              ; preds = %186, %179
  br label %193

193:                                              ; preds = %192
  %194 = load i32, i32* %15, align 4
  %195 = add nsw i32 %194, 1
  store i32 %195, i32* %15, align 4
  br label %175

196:                                              ; preds = %175
  %197 = load i32, i32* %14, align 4
  %198 = sext i32 %197 to i64
  %199 = getelementptr inbounds [101 x %struct.stu], [101 x %struct.stu]* %6, i64 0, i64 %198
  %200 = getelementptr inbounds %struct.stu, %struct.stu* %199, i32 0, i32 0
  %201 = getelementptr inbounds [20 x i8], [20 x i8]* %200, i64 0, i64 0
  %202 = call i32 (i8*, ...) @printf(i8* getelementptr inbounds ([4 x i8], [4 x i8]* @.str.2, i64 0, i64 0), i8* %201)
  %203 = load i32, i32* %14, align 4
  %204 = sext i32 %203 to i64
  %205 = getelementptr inbounds [101 x i32], [101 x i32]* %8, i64 0, i64 %204
  %206 = load i32, i32* %205, align 4
  %207 = call i32 (i8*, ...) @printf(i8* getelementptr inbounds ([4 x i8], [4 x i8]* @.str.3, i64 0, i64 0), i32 %206)
  %208 = load i32, i32* %10, align 4
  %209 = call i32 (i8*, ...) @printf(i8* getelementptr inbounds ([4 x i8], [4 x i8]* @.str.3, i64 0, i64 0), i32 %208)
  ret i32 0
}

declare dso_local i32 @__isoc99_scanf(i8*, ...) #1

declare dso_local i32 @printf(i8*, ...) #1


!llvm.module.flags = !{!0}
!llvm.ident = !{!1}

!0 = !{i32 1, !"wchar_size", i32 4}
!1 = !{!"clang version 10.0.0-4ubuntu1 "}
